; Function Attrs: mustprogress uwtable
define dso_local void @_ZN10cmCTestBZRC2EP7cmCTestRSo(ptr noundef nonnull align 8 dereferenceable(816) %0, ptr noundef %1, ptr noundef nonnull align 8 dereferenceable(8) %2) unnamed_addr #3 align 2 personality ptr @__gxx_personality_v0 {
  %4 = alloca %"class.std::__cxx11::basic_string", align 8
  %5 = alloca %"class.std::allocator", align 1
  tail call void @_ZN15cmCTestGlobalVCC2EP7cmCTestRSo(ptr noundef nonnull align 8 dereferenceable(784) %0, ptr noundef %1, ptr noundef nonnull align 8 dereferenceable(8) %2)
  store ptr getelementptr inbounds ({ [16 x ptr] }, ptr @_ZTV10cmCTestBZR, i64 0, i32 0, i64 2), ptr %0, align 8
  %6 = getelementptr inbounds i8, ptr %0, i64 784
  tail call void @_ZNSt7__cxx1112basic_stringIcSt11char_traitsIcESaIcEEC1Ev(ptr noundef nonnull align 8 dereferenceable(32) %6) #18
  %7 = getelementptr inbounds i8, ptr %0, i64 120
  %8 = getelementptr inbounds i8, ptr %0, i64 504
  %9 = invoke noundef nonnull align 8 dereferenceable(32) ptr @_ZNSt7__cxx1112basic_stringIcSt11char_traitsIcESaIcEEaSERKS4_(ptr noundef nonnull align 8 dereferenceable(32) %8, ptr noundef nonnull align 8 dereferenceable(32) %7)
          to label %.noexc unwind label %36

.noexc:                                           ; preds = %3
  %10 = getelementptr inbounds i8, ptr %0, i64 536
  %11 = getelementptr inbounds i8, ptr %0, i64 152
  %12 = invoke noundef nonnull align 8 dereferenceable(32) ptr @_ZNSt7__cxx1112basic_stringIcSt11char_traitsIcESaIcEEaSERKS4_(ptr noundef nonnull align 8 dereferenceable(32) %10, ptr noundef nonnull align 8 dereferenceable(32) %11)
          to label %.noexc8 unwind label %36

.noexc8:                                          ; preds = %.noexc
  %13 = getelementptr inbounds i8, ptr %0, i64 568
  %14 = getelementptr inbounds i8, ptr %0, i64 184
  %15 = invoke noundef nonnull align 8 dereferenceable(32) ptr @_ZNSt7__cxx1112basic_stringIcSt11char_traitsIcESaIcEEaSERKS4_(ptr noundef nonnull align 8 dereferenceable(32) %13, ptr noundef nonnull align 8 dereferenceable(32) %14)
          to label %.noexc9 unwind label %36

.noexc9:                                          ; preds = %.noexc8
  %16 = getelementptr inbounds i8, ptr %0, i64 600
  %17 = getelementptr inbounds i8, ptr %0, i64 216
  %18 = invoke noundef nonnull align 8 dereferenceable(32) ptr @_ZNSt7__cxx1112basic_stringIcSt11char_traitsIcESaIcEEaSERKS4_(ptr noundef nonnull align 8 dereferenceable(32) %16, ptr noundef nonnull align 8 dereferenceable(32) %17)
          to label %.noexc10 unwind label %36

.noexc10:                                         ; preds = %.noexc9
  %19 = getelementptr inbounds i8, ptr %0, i64 632
  %20 = getelementptr inbounds i8, ptr %0, i64 248
  %21 = invoke noundef nonnull align 8 dereferenceable(32) ptr @_ZNSt7__cxx1112basic_stringIcSt11char_traitsIcESaIcEEaSERKS4_(ptr noundef nonnull align 8 dereferenceable(32) %19, ptr noundef nonnull align 8 dereferenceable(32) %20)
          to label %.noexc11 unwind label %36

.noexc11:                                         ; preds = %.noexc10
  %22 = getelementptr inbounds i8, ptr %0, i64 664
  %23 = getelementptr inbounds i8, ptr %0, i64 280
  %24 = invoke noundef nonnull align 8 dereferenceable(32) ptr @_ZNSt7__cxx1112basic_stringIcSt11char_traitsIcESaIcEEaSERKS4_(ptr noundef nonnull align 8 dereferenceable(32) %22, ptr noundef nonnull align 8 dereferenceable(32) %23)
          to label %.noexc12 unwind label %36

.noexc12:                                         ; preds = %.noexc11
  %25 = getelementptr inbounds i8, ptr %0, i64 696
  %26 = getelementptr inbounds i8, ptr %0, i64 312
  %27 = invoke noundef nonnull align 8 dereferenceable(32) ptr @_ZNSt7__cxx1112basic_stringIcSt11char_traitsIcESaIcEEaSERKS4_(ptr noundef nonnull align 8 dereferenceable(32) %25, ptr noundef nonnull align 8 dereferenceable(32) %26)
          to label %.noexc13 unwind label %36

.noexc13:                                         ; preds = %.noexc12
  %28 = getelementptr inbounds i8, ptr %0, i64 728
  %29 = getelementptr inbounds i8, ptr %0, i64 344
  %30 = invoke noundef nonnull align 8 dereferenceable(32) ptr @_ZNSt7__cxx1112basic_stringIcSt11char_traitsIcESaIcEEaSERKS4_(ptr noundef nonnull align 8 dereferenceable(32) %28, ptr noundef nonnull align 8 dereferenceable(32) %29)
          to label %_ZN9cmCTestVC8RevisionaSERKS0_.exit unwind label %36

_ZN9cmCTestVC8RevisionaSERKS0_.exit:              ; preds = %.noexc13
  call void @_ZNSaIcEC1Ev(ptr noundef nonnull align 1 dereferenceable(1) %5) #18
  %31 = invoke noundef ptr @_ZNSt7__cxx1112basic_stringIcSt11char_traitsIcESaIcEE13_M_local_dataEv(ptr noundef nonnull align 8 dereferenceable(32) %4)
          to label %.noexc15 unwind label %38

.noexc15:                                         ; preds = %_ZN9cmCTestVC8RevisionaSERKS0_.exit
  invoke void @_ZNSt7__cxx1112basic_stringIcSt11char_traitsIcESaIcEE12_Alloc_hiderC1EPcRKS3_(ptr noundef nonnull align 8 dereferenceable(8) %4, ptr noundef %31, ptr noundef nonnull align 1 dereferenceable(1) %5)
          to label %.noexc16 unwind label %38

.noexc16:                                         ; preds = %.noexc15
  invoke void @_ZNSt7__cxx1112basic_stringIcSt11char_traitsIcESaIcEE12_M_constructIPKcEEvT_S8_St20forward_iterator_tag(ptr noundef nonnull align 8 dereferenceable(32) %4, ptr noundef nonnull @.str, ptr noundef nonnull getelementptr inbounds ([22 x i8], ptr @.str, i64 0, i64 21))
          to label %_ZNSt7__cxx1112basic_stringIcSt11char_traitsIcESaIcEEC2IS3_EEPKcRKS3_.exit unwind label %32

32:                                               ; preds = %.noexc16
  %33 = landingpad { ptr, i32 }
          cleanup
  call void @_ZNSaIcED2Ev(ptr noundef nonnull align 1 dereferenceable(1) %4) #18
  br label %.body

_ZNSt7__cxx1112basic_stringIcSt11char_traitsIcESaIcEEC2IS3_EEPKcRKS3_.exit: ; preds = %.noexc16
  %34 = invoke noundef zeroext i1 @_ZN5cmsys11SystemTools6PutEnvERKNSt7__cxx1112basic_stringIcSt11char_traitsIcESaIcEEE(ptr noundef nonnull align 8 dereferenceable(32) %4)
          to label %35 unwind label %40

35:                                               ; preds = %_ZNSt7__cxx1112basic_stringIcSt11char_traitsIcESaIcEEC2IS3_EEPKcRKS3_.exit
  call void @_ZNSt7__cxx1112basic_stringIcSt11char_traitsIcESaIcEED1Ev(ptr noundef nonnull align 8 dereferenceable(32) %4) #18
  call void @_ZNSaIcED1Ev(ptr noundef nonnull align 1 dereferenceable(1) %5) #18
  ret void

36:                                               ; preds = %.noexc13, %.noexc12, %.noexc11, %.noexc10, %.noexc9, %.noexc8, %.noexc, %3
  %37 = landingpad { ptr, i32 }
          cleanup
  br label %42

38:                                               ; preds = %.noexc15, %_ZN9cmCTestVC8RevisionaSERKS0_.exit
  %39 = landingpad { ptr, i32 }
          cleanup
  br label %.body

40:                                               ; preds = %_ZNSt7__cxx1112basic_stringIcSt11char_traitsIcESaIcEEC2IS3_EEPKcRKS3_.exit
  %41 = landingpad { ptr, i32 }
          cleanup
  call void @_ZNSt7__cxx1112basic_stringIcSt11char_traitsIcESaIcEED1Ev(ptr noundef nonnull align 8 dereferenceable(32) %4) #18
  br label %.body

.body:                                            ; preds = %38, %32, %40
  %.pn = phi { ptr, i32 } [ %41, %40 ], [ %39, %38 ], [ %33, %32 ]
  call void @_ZNSaIcED1Ev(ptr noundef nonnull align 1 dereferenceable(1) %5) #18
  br label %42

42:                                               ; preds = %.body, %36
  %.pn.pn = phi { ptr, i32 } [ %.pn, %.body ], [ %37, %36 ]
  call void @_ZNSt7__cxx1112basic_stringIcSt11char_traitsIcESaIcEED1Ev(ptr noundef nonnull align 8 dereferenceable(32) %6) #18
  call void @_ZN15cmCTestGlobalVCD2Ev(ptr noundef nonnull align 8 dereferenceable(784) %0) #18
  resume { ptr, i32 } %.pn.pn
}